target datalayout = "e-m:e-p270:32:32-p271:32:32-p272:64:64-i64:64-i128:128-f80:128-n8:16:32:64-S128"
target triple = "x86_64-pc-linux-gnu"

%"class.std::shared_ptr" = type { %"class.std::__shared_ptr" }
%"class.std::__shared_ptr" = type { ptr, %"class.std::__shared_count" }
%"class.std::__shared_count" = type { ptr }
%"struct.std::array" = type { [9 x i32] }
%"class.open_spiel::tic_tac_toe::TicTacToeState" = type { %"class.open_spiel::State.base", %"struct.std::array", i32, i32, i32, [4 x i8] }
%"class.open_spiel::State.base" = type <{ ptr, %"class.std::shared_ptr", i32, i32, %"class.std::vector", i32 }>
%"class.std::vector" = type { %"struct.std::_Vector_base" }
%"struct.std::_Vector_base" = type { %"struct.std::_Vector_base<open_spiel::State::PlayerAction, std::allocator<open_spiel::State::PlayerAction>>::_Vector_impl" }
%"struct.std::_Vector_base<open_spiel::State::PlayerAction, std::allocator<open_spiel::State::PlayerAction>>::_Vector_impl" = type { %"struct.std::_Vector_base<open_spiel::State::PlayerAction, std::allocator<open_spiel::State::PlayerAction>>::_Vector_impl_data" }
%"struct.std::_Vector_base<open_spiel::State::PlayerAction, std::allocator<open_spiel::State::PlayerAction>>::_Vector_impl_data" = type { ptr, ptr, ptr }

; Function Attrs: mustprogress nounwind uwtable
define noundef zeroext i1 @_ZNK10open_spiel11tic_tac_toe14TicTacToeState6IsFullEv(ptr noundef nonnull align 8 dereferenceable(108) %0) #6 align 2 {
  %2 = alloca ptr, align 8
  store ptr %0, ptr %2, align 8
  %3 = load ptr, ptr %2, align 8
  %4 = getelementptr inbounds nuw %"class.open_spiel::tic_tac_toe::TicTacToeState", ptr %3, i32 0, i32 4
  %5 = load i32, ptr %4, align 8
  %6 = icmp eq i32 %5, 9
  ret i1 %6
}

; Function Attrs: mustprogress nounwind uwtable
define noundef zeroext i1 @_ZNK10open_spiel11tic_tac_toe14TicTacToeState10IsTerminalEv(ptr noundef nonnull align 8 dereferenceable(108) %0) unnamed_addr #6 align 2 {
  %2 = alloca ptr, align 8
  store ptr %0, ptr %2, align 8
  %3 = load ptr, ptr %2, align 8
  %4 = getelementptr inbounds nuw %"class.open_spiel::tic_tac_toe::TicTacToeState", ptr %3, i32 0, i32 3
  %5 = load i32, ptr %4, align 4
  %6 = icmp ne i32 %5, -3
  br i1 %6, label %9, label %7

7:                                                ; preds = %1
  %8 = call noundef zeroext i1 @_ZNK10open_spiel11tic_tac_toe14TicTacToeState6IsFullEv(ptr noundef nonnull align 8 dereferenceable(108) %3)
  br label %9

9:                                                ; preds = %7, %1
  %10 = phi i1 [ true, %1 ], [ %8, %7 ]
  ret i1 %10
}