; Function Attrs: mustprogress nofree norecurse nosync nounwind willreturn memory(argmem: read) uwtable
define noundef zeroext i1 @_ZNK10open_spiel11tic_tac_toe14TicTacToeState10IsTerminalEv(ptr nocapture noundef nonnull readonly align 8 dereferenceable(108) %0) unnamed_addr #7 align 2 {
  %2 = getelementptr inbounds nuw i8, ptr %0, i64 100
  %3 = load i32, ptr %2, align 4
  %.not = icmp ne i32 %3, -3
  %4 = getelementptr inbounds nuw i8, ptr %0, i64 104
  %5 = load i32, ptr %4, align 8
  %6 = icmp eq i32 %5, 9
  %7 = select i1 %.not, i1 true, i1 %6
  ret i1 %7
}